Certificate:
    Data:
        Version: 3 (0x2)
        Serial Number:
            17:88:53:c6:77:43:30:15:92:c8:c7:d2:97:81:8e:06:51:21:e6:18
        Signature Algorithm: sha256WithRSAEncryption
        Issuer: C=AU, ST=Some-State, O=Internet Widgits Pty Ltd, CN=ca
        Validity
            Not Before: Mar 27 16:12:28 2022 GMT
            Not After : Mar 26 16:12:28 2025 GMT
        Subject: C=AU, ST=Some-State, O=Internet Widgits Pty Ltd, CN=ca
        Subject Public Key Info:
            Public Key Algorithm: rsaEncryption
                RSA Public-Key: (3072 bit)
                Modulus:
                    00:e1:dd:28:6f:ba:a8:c5:7c:d3:02:23:d9:81:40:
                    77:03:31:54:9d:ad:c7:7a:b3:ea:ee:45:9d:04:3e:
                    ba:f8:48:9c:f7:9c:5c:39:02:9e:71:a5:06:cf:97:
                    a5:cb:6f:d5:ac:6f:56:e9:dc:f6:48:0f:2e:57:1b:
                    e9:3c:a6:09:52:4c:6a:04:00:34:41:fa:4c:a5:1d:
                    2a:7f:13:f6:68:1c:0c:0c:ef:3d:42:95:6f:31:6d:
                    60:6f:1d:6c:59:3e:68:44:d6:4a:19:63:a8:c9:f1:
                    55:0a:7d:9b:d6:ce:de:67:cd:4b:ed:97:db:be:5a:
                    59:d3:1b:18:89:77:35:c6:fd:4c:f5:b5:02:0e:43:
                    75:99:63:f1:b3:9f:3a:da:fc:6d:4f:75:2c:af:31:
                    a5:a0:1c:14:27:d0:e4:9e:73:6b:ff:fa:1f:cb:43:
                    b6:3e:ba:d4:70:dc:db:6b:f4:6c:dd:e9:40:93:64:
                    27:b6:d6:d1:5d:4f:cf:e9:00:99:e4:05:71:9f:54:
                    7b:78:41:10:9c:4e:45:2f:e4:2f:92:08:da:7f:e1:
                    0b:77:55:31:4e:7f:42:d2:d8:11:2a:f6:28:b3:00:
                    9a:36:9a:96:d5:12:9f:81:c9:cc:f6:73:5f:c6:66:
                    f8:6c:fb:79:a9:b1:d6:38:e8:8b:75:30:39:04:9c:
                    58:65:d6:8a:70:a5:67:51:01:81:3e:02:38:05:cc:
                    5f:be:b8:5d:f2:bd:d7:fd:03:ab:dc:11:03:5e:92:
                    43:c2:aa:b3:af:15:ee:0a:c0:36:75:3d:22:27:c4:
                    fd:ff:67:3e:f7:8a:9d:aa:fe:8a:bf:b6:4b:3b:3d:
                    07:10:61:e3:d0:6f:91:d5:de:a3:65:c2:49:4d:da:
                    00:04:28:74:dc:94:01:60:68:e8:4c:88:84:8a:a5:
                    ed:52:a1:a6:fc:65:1d:5d:16:b2:aa:8b:2c:ed:33:
                    c2:dd:45:f3:57:9a:0b:80:a8:07:2a:9a:03:74:a2:
                    9e:6f:35:f7:45:3c:1f:57:5f:7d
                Exponent: 65537 (0x10001)
        X509v3 extensions:
            X509v3 Subject Key Identifier: 
                9D:EA:22:B6:FD:96:5B:D6:D0:D5:DE:68:E5:EA:40:C9:95:0F:81:AF
            X509v3 Authority Key Identifier: 
                keyid:9D:EA:22:B6:FD:96:5B:D6:D0:D5:DE:68:E5:EA:40:C9:95:0F:81:AF

            X509v3 Basic Constraints: critical
                CA:TRUE
    Signature Algorithm: sha256WithRSAEncryption
         57:1f:06:7c:9e:04:31:56:e2:36:be:7d:d4:27:16:73:17:af:
         54:d2:04:e3:e4:74:93:51:36:e7:18:45:52:a2:ca:a5:2a:28:
         0a:40:47:16:75:55:cf:89:2a:25:1b:b6:a4:e3:b4:ff:77:1f:
         b2:85:31:35:0b:f3:42:ad:41:05:23:94:26:33:a6:6a:17:e4:
         a5:85:69:fd:bc:56:44:e4:0d:61:ff:cb:bc:7a:28:b7:98:48:
         26:b3:af:9d:bb:3d:5e:19:ac:3d:75:4a:8e:0f:40:cb:70:56:
         d4:75:9c:29:86:f2:c9:d1:72:c7:cf:be:d6:f0:d2:e2:19:53:
         e5:80:52:6a:63:3b:51:26:16:43:42:9f:51:d3:85:90:3f:70:
         ae:2a:b8:90:75:a8:c6:12:6a:44:82:b7:49:5f:72:4a:1c:c6:
         0d:e1:79:1e:f3:3d:1d:c4:51:23:0e:5f:69:24:1a:a5:92:07:
         72:e9:a6:c2:29:97:5f:2e:c3:52:20:47:7e:93:98:00:62:94:
         f5:6d:11:dc:77:43:2b:c4:f3:be:94:f1:c7:df:13:ad:d3:ea:
         b7:ae:28:44:dc:dc:b5:89:8c:42:d9:b6:fc:1c:fe:bb:93:38:
         b4:e0:37:ed:63:f9:e2:e7:64:14:a9:33:25:91:20:f3:87:6b:
         f0:45:ec:e3:44:17:7f:ef:b9:39:71:72:e9:8e:3c:a3:a1:e1:
         d4:9b:ae:5f:fe:c1:1c:88:d2:30:ce:5d:06:0f:45:f1:9b:28:
         2c:f5:cf:48:1a:11:4c:28:83:38:32:5a:0b:a5:92:ad:2c:78:
         2b:9c:81:d2:95:32:dd:33:69:17:f0:8a:5d:5c:f6:10:50:5c:
         3a:4f:d4:6c:15:0a:b2:ae:3e:9e:2d:85:47:32:e0:1e:0d:72:
         43:d6:1e:8f:b4:10:5b:ed:a4:24:03:f6:13:6b:d8:0c:0b:eb:
         29:3d:59:ba:3c:dd:61:8c:3a:5e:40:4b:2b:a6:20:6a:b9:1c:
         59:9f:ce:5b:dc:54
-----BEGIN CERTIFICATE-----
MIIEhTCCAu2gAwIBAgIUF4hTxndDMBWSyMfSl4GOBlEh5hgwDQYJKoZIhvcNAQEL
BQAwUjELMAkGA1UEBhMCQVUxEzARBgNVBAgMClNvbWUtU3RhdGUxITAfBgNVBAoM
GEludGVybmV0IFdpZGdpdHMgUHR5IEx0ZDELMAkGA1UEAwwCY2EwHhcNMjIwMzI3
MTYxMjI4WhcNMjUwMzI2MTYxMjI4WjBSMQswCQYDVQQGEwJBVTETMBEGA1UECAwK
U29tZS1TdGF0ZTEhMB8GA1UECgwYSW50ZXJuZXQgV2lkZ2l0cyBQdHkgTHRkMQsw
CQYDVQQDDAJjYTCCAaIwDQYJKoZIhvcNAQEBBQADggGPADCCAYoCggGBAOHdKG+6
qMV80wIj2YFAdwMxVJ2tx3qz6u5FnQQ+uvhInPecXDkCnnGlBs+Xpctv1axvVunc
9kgPLlcb6TymCVJMagQANEH6TKUdKn8T9mgcDAzvPUKVbzFtYG8dbFk+aETWShlj
qMnxVQp9m9bO3mfNS+2X275aWdMbGIl3Ncb9TPW1Ag5DdZlj8bOfOtr8bU91LK8x
paAcFCfQ5J5za//6H8tDtj661HDc22v0bN3pQJNkJ7bW0V1Pz+kAmeQFcZ9Ue3hB
EJxORS/kL5II2n/hC3dVMU5/QtLYESr2KLMAmjaaltUSn4HJzPZzX8Zm+Gz7eamx
1jjoi3UwOQScWGXWinClZ1EBgT4COAXMX764XfK91/0Dq9wRA16SQ8Kqs68V7grA
NnU9IifE/f9nPveKnar+ir+2Szs9BxBh49BvkdXeo2XCSU3aAAQodNyUAWBo6EyI
hIql7VKhpvxlHV0WsqqLLO0zwt1F81eaC4CoByqaA3Sinm8190U8H1dffQIDAQAB
o1MwUTAdBgNVHQ4EFgQUneoitv2WW9bQ1d5o5epAyZUPga8wHwYDVR0jBBgwFoAU
neoitv2WW9bQ1d5o5epAyZUPga8wDwYDVR0TAQH/BAUwAwEB/zANBgkqhkiG9w0B
AQsFAAOCAYEAVx8GfJ4EMVbiNr591CcWcxevVNIE4+R0k1E25xhFUqLKpSooCkBH
FnVVz4kqJRu2pOO0/3cfsoUxNQvzQq1BBSOUJjOmahfkpYVp/bxWROQNYf/LvHoo
t5hIJrOvnbs9XhmsPXVKjg9Ay3BW1HWcKYbyydFyx8++1vDS4hlT5YBSamM7USYW
Q0KfUdOFkD9wriq4kHWoxhJqRIK3SV9yShzGDeF5HvM9HcRRIw5faSQapZIHcumm
wimXXy7DUiBHfpOYAGKU9W0R3HdDK8TzvpTxx98TrdPqt64oRNzctYmMQtm2/Bz+
u5M4tOA37WP54udkFKkzJZEg84dr8EXs40QXf++5OXFy6Y48o6Hh1JuuX/7BHIjS
MM5dBg9F8ZsoLPXPSBoRTCiDODJaC6WSrSx4K5yB0pUy3TNpF/CKXVz2EFBcOk/U
bBUKsq4+ni2FRzLgHg1yQ9Yej7QQW+2kJAP2E2vYDAvrKT1ZujzdYYw6XkBLK6Yg
arkcWZ/OW9xU
-----END CERTIFICATE-----
