Certificate:
    Data:
        Version: 3 (0x2)
        Serial Number:
            15:9e:be:88:6d:80:33:81:0f:52:bc:55:82:f6:10:e1:37:83:2d:9a
        Signature Algorithm: sha256WithRSAEncryption
        Issuer: C=AU, ST=Some-State, O=Internet Widgits Pty Ltd, CN=ca
        Validity
            Not Before: Mar 31 04:40:34 2023 GMT
            Not After : Mar 23 04:40:34 2053 GMT
        Subject: C=AU, ST=Some-State, O=Internet Widgits Pty Ltd, CN=ca
        Subject Public Key Info:
            Public Key Algorithm: rsaEncryption
                RSA Public-Key: (3072 bit)
                Modulus:
                    00:9a:d5:aa:59:b3:8a:b5:ea:80:97:3d:b9:a8:07:
                    84:8e:f8:77:6d:7a:81:9f:8d:21:28:1f:36:df:9c:
                    90:5d:8b:d9:e5:f0:82:ae:ec:ba:3a:3c:ba:d6:54:
                    26:a4:8d:e8:54:d8:74:b5:49:3e:67:a3:96:24:d9:
                    3d:41:bd:7e:7a:18:2e:71:57:fe:c6:2c:36:e5:29:
                    12:8f:26:b4:63:0c:86:e7:d3:fd:96:fb:b6:4c:f6:
                    16:d7:9d:0a:db:bf:3f:61:0e:4a:29:a4:ed:22:11:
                    26:c6:91:82:ab:b7:c9:56:dc:3f:dd:f8:fd:5d:e0:
                    e2:5b:15:9c:04:60:64:3f:31:44:b1:b3:e0:c9:81:
                    96:a6:d3:0a:cb:6b:7c:59:41:e8:8e:ef:22:27:ca:
                    12:d4:5a:77:fe:08:e3:25:04:9a:8b:de:aa:43:73:
                    65:ec:84:d8:d8:17:07:96:ff:ab:06:ba:51:eb:f4:
                    6f:b8:bf:e7:f2:34:53:dd:76:f6:b1:36:a5:81:ab:
                    70:26:89:c1:01:11:2f:e5:30:b4:95:fa:71:59:8c:
                    b3:41:05:fa:30:3d:61:e2:f7:53:8a:5b:fb:c7:30:
                    1d:94:d0:29:25:ee:49:11:65:8d:74:cb:54:2a:d1:
                    b0:39:0f:52:a4:40:e4:81:fd:b3:97:c5:35:a9:b2:
                    cb:0d:7c:8d:29:be:dc:dc:f6:16:41:83:f5:a0:c8:
                    3b:c3:73:d9:e6:54:52:c1:8d:26:77:8b:74:ac:fe:
                    bf:05:b7:9e:0d:a5:52:0d:f9:46:0f:69:47:f9:51:
                    09:f1:e9:60:3e:74:15:09:e3:16:5a:65:89:93:bd:
                    ef:60:3b:e6:28:cd:ea:6c:c6:df:26:a4:fa:cf:a0:
                    0a:75:84:63:dc:80:bf:77:f3:00:73:3b:3c:3d:a2:
                    71:21:eb:4a:2e:51:4d:83:2b:50:0a:14:4c:70:6e:
                    e0:ea:df:b9:85:43:a1:e2:82:f1:5c:1d:fd:87:59:
                    1d:9b:12:bd:bf:ea:92:ec:dd:ef
                Exponent: 65537 (0x10001)
        X509v3 extensions:
            X509v3 Subject Key Identifier: 
                C0:76:AC:D0:7D:CD:71:69:6D:55:D6:86:5F:5C:0C:CE:1A:FA:8B:DD
            X509v3 Authority Key Identifier: 
                keyid:C0:76:AC:D0:7D:CD:71:69:6D:55:D6:86:5F:5C:0C:CE:1A:FA:8B:DD

            X509v3 Basic Constraints: critical
                CA:TRUE
    Signature Algorithm: sha256WithRSAEncryption
         79:51:5f:81:b7:d3:48:f1:c1:d4:04:f0:47:a1:2c:09:88:64:
         32:7c:fd:95:f7:0b:52:43:d9:56:4a:52:38:60:34:ab:f9:6f:
         cd:99:de:ed:6c:a0:af:6b:80:a2:90:65:ee:2f:3b:cb:6a:3a:
         f6:93:48:8d:9f:0c:5d:25:02:c6:31:4a:3a:d6:bc:67:09:16:
         f4:35:4c:79:c8:67:1b:94:03:56:f0:17:9c:c7:08:89:8b:4b:
         22:bc:62:e9:18:4d:59:19:3d:92:de:8b:76:3c:80:ec:b3:fa:
         cd:70:59:9a:6c:26:87:4d:5a:9e:a7:57:c6:d0:be:c2:88:50:
         69:ff:c6:7e:af:e3:1e:fe:f1:ab:8e:ad:35:d2:41:87:f8:c7:
         a5:5a:04:c5:77:db:99:47:6d:ab:f3:47:54:df:f7:7c:e4:ab:
         bc:89:31:46:a0:fd:37:8b:1f:00:d5:9b:1d:13:ff:97:db:12:
         31:2a:48:a1:23:09:fe:d5:ec:9e:e4:22:c2:ab:0f:29:73:f0:
         0b:0a:96:df:24:3a:05:3b:f6:11:d2:45:aa:f3:2b:75:66:7f:
         f6:c9:32:57:db:13:80:e7:f2:4a:a5:f7:0e:28:20:ea:98:0a:
         c4:86:62:34:b2:71:4a:e7:e2:8e:10:70:9f:03:79:21:17:08:
         73:3b:78:1d:13:46:c2:ea:8e:18:38:5a:2f:4b:0f:7c:17:f6:
         bc:b0:47:d5:4a:c8:06:e6:9d:ca:74:ef:ff:39:94:e2:dc:95:
         d3:30:f0:ea:2f:73:23:82:38:01:40:0a:dd:e9:26:58:55:dc:
         65:6f:60:7e:e6:5f:75:b6:4f:d4:42:17:f1:ca:ad:f5:55:ab:
         30:1c:58:2d:c3:68:84:0d:a8:eb:fa:70:dc:d3:82:85:98:1c:
         16:cc:a4:dd:87:26:a5:98:8c:f3:3a:8c:8f:97:68:bd:8c:14:
         5f:ee:45:bd:65:6f:77:4e:0c:fe:d4:31:a1:bc:9d:c0:62:f6:
         bd:75:f8:85:de:58
-----BEGIN CERTIFICATE-----
MIIEhzCCAu+gAwIBAgIUFZ6+iG2AM4EPUrxVgvYQ4TeDLZowDQYJKoZIhvcNAQEL
BQAwUjELMAkGA1UEBhMCQVUxEzARBgNVBAgMClNvbWUtU3RhdGUxITAfBgNVBAoM
GEludGVybmV0IFdpZGdpdHMgUHR5IEx0ZDELMAkGA1UEAwwCY2EwIBcNMjMwMzMx
MDQ0MDM0WhgPMjA1MzAzMjMwNDQwMzRaMFIxCzAJBgNVBAYTAkFVMRMwEQYDVQQI
DApTb21lLVN0YXRlMSEwHwYDVQQKDBhJbnRlcm5ldCBXaWRnaXRzIFB0eSBMdGQx
CzAJBgNVBAMMAmNhMIIBojANBgkqhkiG9w0BAQEFAAOCAY8AMIIBigKCAYEAmtWq
WbOKteqAlz25qAeEjvh3bXqBn40hKB8235yQXYvZ5fCCruy6Ojy61lQmpI3oVNh0
tUk+Z6OWJNk9Qb1+ehgucVf+xiw25SkSjya0YwyG59P9lvu2TPYW150K278/YQ5K
KaTtIhEmxpGCq7fJVtw/3fj9XeDiWxWcBGBkPzFEsbPgyYGWptMKy2t8WUHoju8i
J8oS1Fp3/gjjJQSai96qQ3Nl7ITY2BcHlv+rBrpR6/RvuL/n8jRT3Xb2sTalgatw
JonBAREv5TC0lfpxWYyzQQX6MD1h4vdTilv7xzAdlNApJe5JEWWNdMtUKtGwOQ9S
pEDkgf2zl8U1qbLLDXyNKb7c3PYWQYP1oMg7w3PZ5lRSwY0md4t0rP6/BbeeDaVS
DflGD2lH+VEJ8elgPnQVCeMWWmWJk73vYDvmKM3qbMbfJqT6z6AKdYRj3IC/d/MA
czs8PaJxIetKLlFNgytQChRMcG7g6t+5hUOh4oLxXB39h1kdmxK9v+qS7N3vAgMB
AAGjUzBRMB0GA1UdDgQWBBTAdqzQfc1xaW1V1oZfXAzOGvqL3TAfBgNVHSMEGDAW
gBTAdqzQfc1xaW1V1oZfXAzOGvqL3TAPBgNVHRMBAf8EBTADAQH/MA0GCSqGSIb3
DQEBCwUAA4IBgQB5UV+Bt9NI8cHUBPBHoSwJiGQyfP2V9wtSQ9lWSlI4YDSr+W/N
md7tbKCva4CikGXuLzvLajr2k0iNnwxdJQLGMUo61rxnCRb0NUx5yGcblANW8Bec
xwiJi0sivGLpGE1ZGT2S3ot2PIDss/rNcFmabCaHTVqep1fG0L7CiFBp/8Z+r+Me
/vGrjq010kGH+MelWgTFd9uZR22r80dU3/d85Ku8iTFGoP03ix8A1ZsdE/+X2xIx
KkihIwn+1eye5CLCqw8pc/ALCpbfJDoFO/YR0kWq8yt1Zn/2yTJX2xOA5/JKpfcO
KCDqmArEhmI0snFK5+KOEHCfA3khFwhzO3gdE0bC6o4YOFovSw98F/a8sEfVSsgG
5p3KdO//OZTi3JXTMPDqL3MjgjgBQArd6SZYVdxlb2B+5l91tk/UQhfxyq31Vasw
HFgtw2iEDajr+nDc04KFmBwWzKTdhyalmIzzOoyPl2i9jBRf7kW9ZW93Tgz+1DGh
vJ3AYva9dfiF3lg=
-----END CERTIFICATE-----
